target datalayout = "e-m:e-p270:32:32-p271:32:32-p272:64:64-i64:64-i128:128-f80:128-n8:16:32:64-S128"
target triple = "x86_64-pc-linux-gnu"

%struct.XML_Memory_Handling_Suite = type { ptr, ptr, ptr }
%struct.XML_ParserStruct = type { ptr, ptr, ptr, %struct.XML_Memory_Handling_Suite, ptr, ptr, ptr, i64, ptr, i64, i8, i32, ptr, ptr, ptr, ptr, ptr, ptr, ptr, ptr, ptr, ptr, ptr, ptr, ptr, ptr, ptr, ptr, ptr, ptr, ptr, ptr, ptr, ptr, ptr, ptr, ptr, ptr, %struct.INIT_ENCODING, ptr, ptr, i8, i8, ptr, ptr, ptr, ptr, %struct.prolog_state, ptr, i32, ptr, ptr, ptr, ptr, ptr, i8, i32, ptr, ptr, ptr, ptr, ptr, ptr, ptr, ptr, ptr, i8, i8, ptr, ptr, ptr, ptr, ptr, ptr, i32, i32, i32, ptr, ptr, i64, i8, %struct.position, %struct.STRING_POOL, %struct.STRING_POOL, ptr, i32, i8, ptr, %struct.XML_ParsingStatus, i8, i8, i32, i64, %struct.accounting, %struct.entity_stats }
%struct.INIT_ENCODING = type { %struct.encoding, ptr }
%struct.encoding = type { [4 x ptr], [2 x ptr], ptr, ptr, ptr, ptr, ptr, ptr, ptr, ptr, ptr, ptr, i32, i8, i8 }
%struct.prolog_state = type { ptr, i32, i32, i32, i32, i32 }
%struct.position = type { i64, i64 }
%struct.STRING_POOL = type { ptr, ptr, ptr, ptr, ptr, ptr }
%struct.XML_ParsingStatus = type { i32, i8 }
%struct.accounting = type { i64, i64, i64, float, i64 }
%struct.entity_stats = type { i32, i32, i32, i64 }

; Function Attrs: nounwind uwtable
define hidden zeroext i8 @PyExpat_XML_SetBillionLaughsAttackProtectionMaximumAmplification(ptr noundef %0, float noundef %1) #0 {
  %3 = alloca i8, align 1
  %4 = alloca ptr, align 8
  %5 = alloca float, align 4
  store ptr %0, ptr %4, align 8, !tbaa !12
  store float %1, ptr %5, align 4, !tbaa !236
  %6 = load ptr, ptr %4, align 8, !tbaa !12
  %7 = icmp eq ptr %6, null
  br i1 %7, label %19, label %8

8:                                                ; preds = %2
  %9 = load ptr, ptr %4, align 8, !tbaa !12
  %10 = getelementptr inbounds nuw %struct.XML_ParserStruct, ptr %9, i32 0, i32 87
  %11 = load ptr, ptr %10, align 8, !tbaa !60
  %12 = icmp ne ptr %11, null
  br i1 %12, label %19, label %13

13:                                               ; preds = %8
  %14 = load float, ptr %5, align 4, !tbaa !236
  %15 = call i1 @llvm.is.fpclass.f32(float %14, i32 3)
  br i1 %15, label %19, label %16

16:                                               ; preds = %13
  %17 = load float, ptr %5, align 4, !tbaa !236
  %18 = fcmp olt float %17, 1.000000e+00
  br i1 %18, label %19, label %20

19:                                               ; preds = %16, %13, %8, %2
  store i8 0, ptr %3, align 1
  br label %25

20:                                               ; preds = %16
  %21 = load float, ptr %5, align 4, !tbaa !236
  %22 = load ptr, ptr %4, align 8, !tbaa !12
  %23 = getelementptr inbounds nuw %struct.XML_ParserStruct, ptr %22, i32 0, i32 93
  %24 = getelementptr inbounds nuw %struct.accounting, ptr %23, i32 0, i32 3
  store float %21, ptr %24, align 8, !tbaa !149
  store i8 1, ptr %3, align 1
  br label %25

25:                                               ; preds = %20, %19
  %26 = load i8, ptr %3, align 1
  ret i8 %26
}