; Function Attrs: mustprogress nofree norecurse nosync nounwind willreturn memory(argmem: readwrite) uwtable
define hidden zeroext range(i8 0, 2) i8 @PyExpat_XML_SetBillionLaughsAttackProtectionMaximumAmplification(ptr noundef %0, float noundef %1) local_unnamed_addr #4 {
  %3 = icmp eq ptr %0, null
  br i1 %3, label %12, label %4

4:                                                ; preds = %2
  %5 = getelementptr inbounds nuw i8, ptr %0, i64 912
  %6 = load ptr, ptr %5, align 8, !tbaa !66
  %.not = icmp eq ptr %6, null
  br i1 %.not, label %7, label %12

7:                                                ; preds = %4
  %8 = fcmp uno float %1, 0.000000e+00
  %9 = fcmp olt float %1, 1.000000e+00
  %or.cond = or i1 %8, %9
  br i1 %or.cond, label %12, label %10

10:                                               ; preds = %7
  %11 = getelementptr inbounds nuw i8, ptr %0, i64 968
  store float %1, ptr %11, align 8, !tbaa !119
  br label %12

12:                                               ; preds = %2, %4, %7, %10
  %.0 = phi i8 [ 1, %10 ], [ 0, %7 ], [ 0, %4 ], [ 0, %2 ]
  ret i8 %.0
}